BL51 BANKED LINKER/LOCATER V6.22                                                        08/09/2018  16:18:16  PAGE 1


BL51 BANKED LINKER/LOCATER V6.22, INVOKED BY:
C:\KEIL\C51\BIN\BL51.EXE ..\hex\IntProcess.obj, ..\hex\main.obj, ..\hex\timer.obj, ..\hex\UART.obj TO ..\hex\test PRINT 
>> (.\list\test.m51) RAMSIZE (256)


MEMORY MODEL: SMALL


INPUT MODULES INCLUDED:
  ..\hex\IntProcess.obj (INTPROCESS)
  ..\hex\main.obj (MAIN)
  ..\hex\timer.obj (TIMER)
  ..\hex\UART.obj (UART)
  C:\KEIL\C51\LIB\C51S.LIB (?C_STARTUP)
  C:\KEIL\C51\LIB\C51S.LIB (?C_INIT)


LINK MAP OF MODULE:  ..\hex\test (INTPROCESS)


            TYPE    BASE      LENGTH    RELOCATION   SEGMENT NAME
            -----------------------------------------------------

            * * * * * * *   D A T A   M E M O R Y   * * * * * * *
            REG     0000H     0008H     ABSOLUTE     "REG BANK 0"
            DATA    0008H     0013H     UNIT         ?DT?MAIN
            DATA    001BH     0004H     UNIT         ?DT?INTPROCESS
            DATA    001FH     0001H     UNIT         _DATA_GROUP_
            BIT     0020H.0   0000H.3   UNIT         ?BI?TIMER
                    0020H.3   0000H.5                *** GAP ***
            DATA    0021H     0006H     UNIT         ?DT?TIMER
            IDATA   0027H     0001H     UNIT         ?STACK

            * * * * * * *   C O D E   M E M O R Y   * * * * * * *
            CODE    0000H     0003H     ABSOLUTE     
            CODE    0003H     0003H     ABSOLUTE     
            CODE    0006H     0003H     UNIT         ?PR?INT0PROCESS?INTPROCESS
                    0009H     0002H                  *** GAP ***
            CODE    000BH     0003H     ABSOLUTE     
            CODE    000EH     0003H     UNIT         ?PR?INT1PROCESS?INTPROCESS
                    0011H     0002H                  *** GAP ***
            CODE    0013H     0003H     ABSOLUTE     
            CODE    0016H     008CH     UNIT         ?C_C51STARTUP
            CODE    00A2H     003AH     UNIT         ?PR?TIMER0?TIMER
            CODE    00DCH     001EH     UNIT         ?PR?MAIN?MAIN
            CODE    00FAH     001BH     UNIT         ?PR?TIMER2_INIT?UART
            CODE    0115H     0019H     UNIT         ?PR?_DELAY_MS?TIMER
            CODE    012EH     0013H     UNIT         ?C_INITSEG
            CODE    0141H     0010H     UNIT         ?PR?IO_INIT?MAIN
            CODE    0151H     000EH     UNIT         ?PR?TIMER0_INIT?TIMER
            CODE    015FH     000DH     UNIT         ?PR?TIMER1_INIT?TIMER
            CODE    016CH     000CH     UNIT         ?PR?SYSINIT?MAIN
            CODE    0178H     000BH     UNIT         ?PR?INTERRUPTINIT?INTPROCESS
            CODE    0183H     0009H     UNIT         ?PR?DELAY_1MS?TIMER
            CODE    018CH     0008H     UNIT         ?PR?_UART_SEND_BYTE?UART



BL51 BANKED LINKER/LOCATER V6.22                                                      08/09/2018  16:18:16  PAGE 2


OVERLAY MAP OF MODULE:   ..\hex\test (INTPROCESS)


SEGMENT                                DATA_GROUP 
  +--> CALLED SEGMENT                START    LENGTH
----------------------------------------------------
?C_C51STARTUP                        -----    -----
  +--> ?PR?MAIN?MAIN
  +--> ?C_INITSEG

?PR?MAIN?MAIN                        001FH    0001H
  +--> ?PR?SYSINIT?MAIN

?PR?SYSINIT?MAIN                     -----    -----
  +--> ?PR?IO_INIT?MAIN
  +--> ?PR?TIMER0_INIT?TIMER
  +--> ?PR?TIMER1_INIT?TIMER
  +--> ?PR?INTERRUPTINIT?INTPROCESS



SYMBOL TABLE OF MODULE:  ..\hex\test (INTPROCESS)

  VALUE           TYPE          NAME
  ----------------------------------

  -------         MODULE        INTPROCESS
  C:0000H         SYMBOL        _ICE_DUMMY_
  D:0080H         PUBLIC        P0
  D:001BH         PUBLIC        Int0Cnt
  D:001CH         PUBLIC        Int1Cnt
  D:001DH         PUBLIC        Int2Cnt
  B:00A8H.7       PUBLIC        EA
  D:001EH         PUBLIC        Int3Cnt
  D:00A8H         PUBLIC        IE
  D:00B8H         PUBLIC        IP
  D:00D8H         PUBLIC        CCON
  D:0098H         PUBLIC        SCON
  D:0088H         PUBLIC        TCON
  C:0006H         PUBLIC        Int0Process
  C:000EH         PUBLIC        Int1Process
  B:0088H.0       PUBLIC        IT0
  B:00A8H.0       PUBLIC        EX0
  B:0088H.2       PUBLIC        IT1
  B:00A8H.2       PUBLIC        EX1
  C:0178H         PUBLIC        InterruptInit
  D:00D0H         PUBLIC        PSW
  -------         PROC          INTERRUPTINIT
  C:0178H         LINE#         5
  C:0178H         LINE#         6
  C:0178H         LINE#         7
  C:017AH         LINE#         8
  C:017CH         LINE#         9
  C:017EH         LINE#         10
  C:0180H         LINE#         18
  C:0182H         LINE#         19
  -------         ENDPROC       INTERRUPTINIT
BL51 BANKED LINKER/LOCATER V6.22                                                      08/09/2018  16:18:16  PAGE 3


  -------         PROC          INT0PROCESS
  C:0006H         LINE#         21
  C:0006H         LINE#         23
  C:0008H         LINE#         24
  -------         ENDPROC       INT0PROCESS
  -------         PROC          INT1PROCESS
  C:000EH         LINE#         26
  C:000EH         LINE#         28
  C:0010H         LINE#         29
  -------         ENDPROC       INT1PROCESS
  -------         ENDMOD        INTPROCESS

  -------         MODULE        MAIN
  C:0000H         SYMBOL        _ICE_DUMMY_
  D:0080H         PUBLIC        P0
  D:0090H         PUBLIC        P1
  D:00A0H         PUBLIC        P2
  D:00B0H         PUBLIC        P3
  D:00C0H         PUBLIC        P4
  D:0008H         PUBLIC        AD
  D:00A8H         PUBLIC        IE
  D:00B8H         PUBLIC        IP
  D:00D8H         PUBLIC        CCON
  C:00DCH         PUBLIC        main
  C:0141H         PUBLIC        IO_INIT
  D:000AH         PUBLIC        disp
  D:0098H         PUBLIC        SCON
  D:0088H         PUBLIC        TCON
  D:0014H         PUBLIC        AD1
  D:0016H         PUBLIC        AD2
  B:0080H.3       PUBLIC        LED
  D:0018H         PUBLIC        sum
  C:016CH         PUBLIC        SysInit
  D:001AH         PUBLIC        m
  D:00D0H         PUBLIC        PSW
  -------         PROC          IO_INIT
  C:0141H         LINE#         23
  C:0141H         LINE#         24
  C:0141H         LINE#         25
  C:0144H         LINE#         26
  C:0147H         LINE#         27
  C:014AH         LINE#         28
  C:014DH         LINE#         29
  C:0150H         LINE#         30
  -------         ENDPROC       IO_INIT
  -------         PROC          SYSINIT
  C:016CH         LINE#         37
  C:016CH         LINE#         38
  C:016CH         LINE#         39
  C:016FH         LINE#         43
  C:0172H         LINE#         45
  C:0175H         LINE#         47
  -------         ENDPROC       SYSINIT
  -------         PROC          MAIN
  -------         DO            
  D:001FH         SYMBOL        i
  -------         ENDDO         
BL51 BANKED LINKER/LOCATER V6.22                                                      08/09/2018  16:18:16  PAGE 4


  C:00DCH         LINE#         73
  C:00DCH         LINE#         74
  C:00DCH         LINE#         77
  C:00DFH         LINE#         80
  C:00E2H         LINE#         81
  C:00E6H         LINE#         89
  C:00E6H         LINE#         90
  C:00E6H         LINE#         91
  C:00E8H         LINE#         92
  C:00EBH         LINE#         93
  C:00EFH         LINE#         94
  C:00F1H         LINE#         95
  C:00F4H         LINE#         96
  -------         ENDPROC       MAIN
  -------         ENDMOD        MAIN

  -------         MODULE        TIMER
  C:0000H         SYMBOL        _ICE_DUMMY_
  D:0080H         PUBLIC        P0
  B:0020H.0       PUBLIC        w1sf
  C:0183H         PUBLIC        delay_1ms
  D:00A8H         PUBLIC        IE
  D:00B8H         PUBLIC        IP
  D:00D8H         PUBLIC        CCON
  B:0020H.1       PUBLIC        w25msf
  D:0023H         PUBLIC        Timer1s
  C:0151H         PUBLIC        Timer0_Init
  C:015FH         PUBLIC        Timer1_Init
  C:00A2H         PUBLIC        Timer0
  D:0098H         PUBLIC        SCON
  D:0089H         PUBLIC        TMOD
  D:0088H         PUBLIC        TCON
  D:0024H         PUBLIC        Timer2500us
  B:00A8H.1       PUBLIC        ET0
  B:0088H.5       PUBLIC        TF0
  B:00A8H.3       PUBLIC        ET1
  D:008CH         PUBLIC        TH0
  D:008DH         PUBLIC        TH1
  D:008AH         PUBLIC        TL0
  B:0020H.2       PUBLIC        w100msf
  D:008BH         PUBLIC        TL1
  C:0115H         PUBLIC        _delay_ms
  B:0088H.4       PUBLIC        TR0
  B:0088H.6       PUBLIC        TR1
  D:0025H         PUBLIC        Rs232Timer
  D:0026H         PUBLIC        Timer100ms
  D:00D0H         PUBLIC        PSW
  -------         PROC          TIMER0_INIT
  C:0151H         LINE#         12
  C:0151H         LINE#         13
  C:0151H         LINE#         14
  C:0154H         LINE#         15
  C:0157H         LINE#         16
  C:015AH         LINE#         17
  C:015CH         LINE#         18
  C:015EH         LINE#         19
  -------         ENDPROC       TIMER0_INIT
BL51 BANKED LINKER/LOCATER V6.22                                                      08/09/2018  16:18:16  PAGE 5


  -------         PROC          TIMER1_INIT
  C:015FH         LINE#         21
  C:015FH         LINE#         22
  C:015FH         LINE#         23
  C:0162H         LINE#         24
  C:0165H         LINE#         25
  C:0167H         LINE#         26
  C:0169H         LINE#         27
  C:016BH         LINE#         28
  -------         ENDPROC       TIMER1_INIT
  -------         PROC          DELAY_1MS
  -------         DO            
  D:0007H         SYMBOL        a
  -------         ENDDO         
  C:0183H         LINE#         35
  C:0183H         LINE#         36
  C:0183H         LINE#         37
  C:0185H         LINE#         38
  C:018BH         LINE#         39
  -------         ENDPROC       DELAY_1MS
  -------         PROC          _DELAY_MS
  D:0004H         SYMBOL        b
  -------         DO            
  D:0002H         SYMBOL        c
  -------         ENDDO         
  C:0115H         LINE#         46
  C:0119H         LINE#         47
  C:0119H         LINE#         49
  C:0123H         LINE#         50
  C:0123H         LINE#         51
  C:0126H         LINE#         52
  C:012DH         LINE#         53
  -------         ENDPROC       _DELAY_MS
  -------         PROC          TIMER0
  -------         DO            
  D:0021H         SYMBOL        i
  D:0022H         SYMBOL        j
  -------         ENDDO         
  C:00A2H         LINE#         55
  C:00A4H         LINE#         59
  C:00A6H         LINE#         60
  C:00A9H         LINE#         61
  C:00ACH         LINE#         62
  C:00AEH         LINE#         63
  C:00B4H         LINE#         64
  C:00BAH         LINE#         65
  C:00BAH         LINE#         66
  C:00BDH         LINE#         67
  C:00C3H         LINE#         69
  C:00C5H         LINE#         70
  C:00CBH         LINE#         71
  C:00CEH         LINE#         72
  C:00CEH         LINE#         73
  C:00D1H         LINE#         74
  C:00D7H         LINE#         75
  C:00D9H         LINE#         76
  C:00D9H         LINE#         77
BL51 BANKED LINKER/LOCATER V6.22                                                      08/09/2018  16:18:16  PAGE 6


  C:00D9H         LINE#         78
  -------         ENDPROC       TIMER0
  -------         ENDMOD        TIMER

  -------         MODULE        UART
  C:0000H         SYMBOL        _ICE_DUMMY_
  D:0090H         PUBLIC        P1
  D:00B0H         PUBLIC        P3
  D:00C0H         PUBLIC        XICON
  D:00E8H         PUBLIC        P4
  D:00A8H         PUBLIC        IE
  B:00A8H.4       PUBLIC        ES
  D:00B8H         PUBLIC        IP
  B:0098H.1       PUBLIC        TI
  C:018CH         PUBLIC        _UART_Send_Byte
  D:00CBH         PUBLIC        RCAP2H
  D:00CAH         PUBLIC        RCAP2L
  D:0099H         PUBLIC        SBUF
  D:0087H         PUBLIC        PCON
  D:0098H         PUBLIC        SCON
  D:0088H         PUBLIC        TCON
  C:00FAH         PUBLIC        Timer2_init
  D:00CDH         PUBLIC        TH2
  D:00CCH         PUBLIC        TL2
  D:00C9H         PUBLIC        T2MOD
  D:00C8H         PUBLIC        T2CON
  D:00D0H         PUBLIC        PSW
  -------         PROC          TIMER2_INIT
  C:00FAH         LINE#         14
  C:00FAH         LINE#         15
  C:00FAH         LINE#         17
  C:00FDH         LINE#         18
  C:0100H         LINE#         19
  C:0103H         LINE#         20
  C:0106H         LINE#         24
  C:0109H         LINE#         25
  C:010CH         LINE#         26
  C:010FH         LINE#         27
  C:0112H         LINE#         28
  C:0114H         LINE#         30
  -------         ENDPROC       TIMER2_INIT
  -------         PROC          _UART_SEND_BYTE
  D:0007H         SYMBOL        dat
  C:018CH         LINE#         51
  C:018CH         LINE#         52
  C:018CH         LINE#         53
  C:018EH         LINE#         54
  C:0191H         LINE#         55
  C:0193H         LINE#         56
  -------         ENDPROC       _UART_SEND_BYTE
  -------         ENDMOD        UART

*** WARNING L16: UNCALLED SEGMENT, IGNORED FOR OVERLAY PROCESS
    SEGMENT: ?PR?_DELAY_MS?TIMER

*** WARNING L16: UNCALLED SEGMENT, IGNORED FOR OVERLAY PROCESS
    SEGMENT: ?PR?TIMER2_INIT?UART
BL51 BANKED LINKER/LOCATER V6.22                                                      08/09/2018  16:18:16  PAGE 7



*** WARNING L16: UNCALLED SEGMENT, IGNORED FOR OVERLAY PROCESS
    SEGMENT: ?PR?_UART_SEND_BYTE?UART

Program Size: data=39.3 xdata=0 code=400
LINK/LOCATE RUN COMPLETE.  3 WARNING(S),  0 ERROR(S)
